; Function Attrs: mustprogress uwtable
define hidden noundef zeroext i1 @_ZN4lean18is_extern_constantERKNS_16elab_environmentERKNS_4nameE(ptr noundef nonnull readonly align 8 captures(none) dereferenceable(8) %0, ptr noundef nonnull readonly align 8 captures(none) dereferenceable(8) %1) local_unnamed_addr #0 personality ptr @__gxx_personality_v0 {
  %3 = alloca %"class.lean::optional", align 8
  call void @llvm.lifetime.start.p0(i64 16, ptr nonnull %3) #16
  %4 = load ptr, ptr %0, align 8, !tbaa !3, !noalias !17
  %5 = ptrtoint ptr %4 to i64
  %6 = and i64 %5, 1
  %.not.i.i.i = icmp eq i64 %6, 0
  br i1 %.not.i.i.i, label %7, label %_ZNK4lean10object_ref10to_obj_argEv.exit.i

7:                                                ; preds = %2
  %.val.i.i.i.i = load i32, ptr %4, align 4, !tbaa !8, !noalias !17
  %8 = icmp sgt i32 %.val.i.i.i.i, 0
  br i1 %8, label %9, label %11, !prof !11

9:                                                ; preds = %7
  %10 = add nuw nsw i32 %.val.i.i.i.i, 1
  store i32 %10, ptr %4, align 4, !tbaa !8, !noalias !17
  br label %_ZNK4lean10object_ref10to_obj_argEv.exit.i

11:                                               ; preds = %7
  %.not.i.i.i.i = icmp eq i32 %.val.i.i.i.i, 0
  br i1 %.not.i.i.i.i, label %_ZNK4lean10object_ref10to_obj_argEv.exit.i, label %12

12:                                               ; preds = %11
  tail call void @lean_inc_ref_cold(ptr noundef nonnull %4), !noalias !17
  %.pre.i.i = load ptr, ptr %0, align 8, !tbaa !3, !noalias !17
  br label %_ZNK4lean10object_ref10to_obj_argEv.exit.i

_ZNK4lean10object_ref10to_obj_argEv.exit.i:       ; preds = %12, %11, %9, %2
  %13 = phi ptr [ %4, %2 ], [ %4, %9 ], [ %4, %11 ], [ %.pre.i.i, %12 ]
  %14 = load ptr, ptr %1, align 8, !tbaa !3, !noalias !17
  %15 = ptrtoint ptr %14 to i64
  %16 = and i64 %15, 1
  %.not.i.i2.i = icmp eq i64 %16, 0
  br i1 %.not.i.i2.i, label %17, label %_ZN4lean20get_extern_attr_dataERKNS_16elab_environmentERKNS_4nameE.exit

17:                                               ; preds = %_ZNK4lean10object_ref10to_obj_argEv.exit.i
  %.val.i.i.i3.i = load i32, ptr %14, align 4, !tbaa !8, !noalias !17
  %18 = icmp sgt i32 %.val.i.i.i3.i, 0
  br i1 %18, label %19, label %21, !prof !11

19:                                               ; preds = %17
  %20 = add nuw nsw i32 %.val.i.i.i3.i, 1
  store i32 %20, ptr %14, align 4, !tbaa !8, !noalias !17
  br label %_ZN4lean20get_extern_attr_dataERKNS_16elab_environmentERKNS_4nameE.exit

21:                                               ; preds = %17
  %.not.i.i.i4.i = icmp eq i32 %.val.i.i.i3.i, 0
  br i1 %.not.i.i.i4.i, label %_ZN4lean20get_extern_attr_dataERKNS_16elab_environmentERKNS_4nameE.exit, label %22

22:                                               ; preds = %21
  tail call void @lean_inc_ref_cold(ptr noundef nonnull %14), !noalias !17
  %.pre.i5.i = load ptr, ptr %1, align 8, !tbaa !3, !noalias !17
  br label %_ZN4lean20get_extern_attr_dataERKNS_16elab_environmentERKNS_4nameE.exit

_ZN4lean20get_extern_attr_dataERKNS_16elab_environmentERKNS_4nameE.exit: ; preds = %_ZNK4lean10object_ref10to_obj_argEv.exit.i, %19, %21, %22
  %23 = phi ptr [ %14, %_ZNK4lean10object_ref10to_obj_argEv.exit.i ], [ %14, %19 ], [ %14, %21 ], [ %.pre.i5.i, %22 ]
  %24 = tail call ptr @lean_get_extern_attr_data(ptr noundef %13, ptr noundef %23), !noalias !17
  call void @_ZN4lean11to_optionalINS_10object_refEEENS_8optionalIT_EEP11lean_object(ptr dead_on_unwind nonnull writable sret(%"class.lean::optional") align 8 %3, ptr noundef %24)
  %25 = load i8, ptr %3, align 8, !tbaa !12, !range !20, !noundef !21
  %26 = trunc nuw i8 %25 to i1
  br i1 %26, label %27, label %_ZN4lean8optionalINS_10object_refEED2Ev.exit

27:                                               ; preds = %_ZN4lean20get_extern_attr_dataERKNS_16elab_environmentERKNS_4nameE.exit
  %28 = getelementptr inbounds nuw i8, ptr %3, i64 8
  %29 = load ptr, ptr %28, align 8, !tbaa !3
  %30 = ptrtoint ptr %29 to i64
  %31 = and i64 %30, 1
  %.not.i.i.i2 = icmp eq i64 %31, 0
  br i1 %.not.i.i.i2, label %32, label %_ZN4lean8optionalINS_10object_refEED2Ev.exit

32:                                               ; preds = %27
  %33 = load i32, ptr %29, align 4, !tbaa !8
  %34 = icmp sgt i32 %33, 1
  br i1 %34, label %35, label %37, !prof !11

35:                                               ; preds = %32
  %36 = add nsw i32 %33, -1
  store i32 %36, ptr %29, align 4, !tbaa !8
  br label %_ZN4lean8optionalINS_10object_refEED2Ev.exit

37:                                               ; preds = %32
  %.not.i.i.i.i3 = icmp eq i32 %33, 0
  br i1 %.not.i.i.i.i3, label %_ZN4lean8optionalINS_10object_refEED2Ev.exit, label %38

38:                                               ; preds = %37
  invoke void @lean_dec_ref_cold(ptr noundef nonnull %29)
          to label %_ZN4lean8optionalINS_10object_refEED2Ev.exit unwind label %39

39:                                               ; preds = %38
  %40 = landingpad { ptr, i32 }
          catch ptr null
  %41 = extractvalue { ptr, i32 } %40, 0
  call void @__clang_call_terminate(ptr %41) #17
  unreachable

_ZN4lean8optionalINS_10object_refEED2Ev.exit:     ; preds = %_ZN4lean20get_extern_attr_dataERKNS_16elab_environmentERKNS_4nameE.exit, %27, %35, %37, %38
  call void @llvm.lifetime.end.p0(i64 16, ptr nonnull %3) #16
  ret i1 %26
}